ccopy_reg
_reconstructor
p0
(csklearn.cross_validation
ShuffleSplit
p1
c__builtin__
object
p2
Ntp3
Rp4
(dp5
S'n_iter'
p6
I10
sS'n_train'
p7
I26
sS'n'
p8
I265
sS'train_size'
p9
NsS'random_state'
p10
I0
sS'indices'
p11
I00
sS'test_size'
p12
F0.9
sS'n_test'
p13
I239
sb.